target datalayout = "e-m:e-p270:32:32-p271:32:32-p272:64:64-i64:64-i128:128-f80:128-n8:16:32:64-S128"
target triple = "x86_64-pc-linux-gnu"

%"class.g2o::OptimizationAlgorithmWithHessian" = type { %"class.g2o::OptimizationAlgorithm", ptr, ptr }
%"class.g2o::OptimizationAlgorithm" = type { ptr, ptr, %"class.g2o::PropertyMap" }
%"class.g2o::PropertyMap" = type { %"class.std::map" }
%"class.std::map" = type { %"class.std::_Rb_tree" }
%"class.std::_Rb_tree" = type { %"struct.std::_Rb_tree<std::__cxx11::basic_string<char>, std::pair<const std::__cxx11::basic_string<char>, g2o::BaseProperty *>, std::_Select1st<std::pair<const std::__cxx11::basic_string<char>, g2o::BaseProperty *>>, std::less<std::__cxx11::basic_string<char>>>::_Rb_tree_impl" }
%"struct.std::_Rb_tree<std::__cxx11::basic_string<char>, std::pair<const std::__cxx11::basic_string<char>, g2o::BaseProperty *>, std::_Select1st<std::pair<const std::__cxx11::basic_string<char>, g2o::BaseProperty *>>, std::less<std::__cxx11::basic_string<char>>>::_Rb_tree_impl" = type { [8 x i8], %"struct.std::_Rb_tree_header" }
%"struct.std::_Rb_tree_header" = type { %"struct.std::_Rb_tree_node_base", i64 }
%"struct.std::_Rb_tree_node_base" = type { i32, ptr, ptr, ptr }
%"struct.g2o::G2OBatchStatistics" = type { i32, i32, i32, double, double, double, double, i32, double, double, double, double, double, i32, double, double, double, i64, i64, i64, i64 }
%"class.g2o::Solver" = type { ptr, ptr, ptr, ptr, i64, i64, i8, i64 }

@_ZN3g2o18G2OBatchStatistics12_globalStatsE = external global ptr, align 8

; Function Attrs: mustprogress nounwind uwtable
define linkonce_odr noundef ptr @_ZN3g2o6Solver1xEv(ptr noundef nonnull align 8 dereferenceable(64) %0) #1 comdat align 2 {
  %2 = alloca ptr, align 8
  store ptr %0, ptr %2, align 8, !tbaa !22
  %3 = load ptr, ptr %2, align 8
  %4 = getelementptr inbounds nuw %"class.g2o::Solver", ptr %3, i32 0, i32 2
  %5 = load ptr, ptr %4, align 8, !tbaa !56
  ret ptr %5
}

; Function Attrs: mustprogress nounwind uwtable
define linkonce_odr noundef ptr @_ZN3g2o18G2OBatchStatistics11globalStatsEv() #1 comdat align 2 {
  %1 = load ptr, ptr @_ZN3g2o18G2OBatchStatistics12_globalStatsE, align 8, !tbaa !44
  ret ptr %1
}

; Function Attrs: mustprogress uwtable
define noundef i32 @_ZN3g2o32OptimizationAlgorithmGaussNewton5solveEib(ptr noundef nonnull align 8 dereferenceable(88) %0, i32 noundef %1, i1 noundef zeroext %2) unnamed_addr #3 align 2 {
  %4 = alloca i32, align 4
  %5 = alloca ptr, align 8
  %6 = alloca i32, align 4
  %7 = alloca i8, align 1
  %8 = alloca i8, align 1
  %9 = alloca double, align 8
  %10 = alloca ptr, align 8
  %11 = alloca i32, align 4
  store ptr %0, ptr %5, align 8, !tbaa !14
  store i32 %1, ptr %6, align 4, !tbaa !24
  %12 = zext i1 %2 to i8
  store i8 %12, ptr %7, align 1, !tbaa !26
  %13 = load ptr, ptr %5, align 8
  call void @llvm.lifetime.start.p0(i64 1, ptr %8) #6
  store i8 1, ptr %8, align 1, !tbaa !26
  call void @llvm.lifetime.start.p0(i64 8, ptr %9) #6
  %14 = call noundef double @_ZN3g2o18get_monotonic_timeEv()
  store double %14, ptr %9, align 8, !tbaa !28
  %15 = getelementptr inbounds nuw %"class.g2o::OptimizationAlgorithm", ptr %13, i32 0, i32 1
  %16 = load ptr, ptr %15, align 8, !tbaa !30
  call void @_ZN3g2o15SparseOptimizer19computeActiveErrorsEv(ptr noundef nonnull align 8 dereferenceable(409) %16)
  call void @llvm.lifetime.start.p0(i64 8, ptr %10) #6
  %17 = call noundef ptr @_ZN3g2o18G2OBatchStatistics11globalStatsEv()
  store ptr %17, ptr %10, align 8, !tbaa !44
  %18 = load ptr, ptr %10, align 8, !tbaa !44
  %19 = icmp ne ptr %18, null
  br i1 %19, label %20, label %26

20:                                               ; preds = %3
  %21 = call noundef double @_ZN3g2o18get_monotonic_timeEv()
  %22 = load double, ptr %9, align 8, !tbaa !28
  %23 = fsub double %21, %22
  %24 = load ptr, ptr %10, align 8, !tbaa !44
  %25 = getelementptr inbounds nuw %"struct.g2o::G2OBatchStatistics", ptr %24, i32 0, i32 4
  store double %23, ptr %25, align 8, !tbaa !46
  br label %26

26:                                               ; preds = %20, %3
  %27 = load i32, ptr %6, align 4, !tbaa !24
  %28 = icmp eq i32 %27, 0
  br i1 %28, label %29, label %44

29:                                               ; preds = %26
  %30 = load i8, ptr %7, align 1, !tbaa !26, !range !48, !noundef !49
  %31 = trunc i8 %30 to i1
  br i1 %31, label %44, label %32

32:                                               ; preds = %29
  %33 = getelementptr inbounds nuw %"class.g2o::OptimizationAlgorithmWithHessian", ptr %13, i32 0, i32 1
  %34 = load ptr, ptr %33, align 8, !tbaa !50
  %35 = load ptr, ptr %34, align 8, !tbaa !18
  %36 = getelementptr inbounds ptr, ptr %35, i64 3
  %37 = load ptr, ptr %36, align 8
  %38 = call noundef zeroext i1 %37(ptr noundef nonnull align 8 dereferenceable(64) %34, i1 noundef zeroext false)
  %39 = zext i1 %38 to i8
  store i8 %39, ptr %8, align 1, !tbaa !26
  %40 = load i8, ptr %8, align 1, !tbaa !26, !range !48, !noundef !49
  %41 = trunc i8 %40 to i1
  br i1 %41, label %43, label %42

42:                                               ; preds = %32
  store i32 -1, ptr %4, align 4
  store i32 1, ptr %11, align 4
  br label %97

43:                                               ; preds = %32
  br label %44

44:                                               ; preds = %43, %29, %26
  %45 = call noundef double @_ZN3g2o18get_monotonic_timeEv()
  store double %45, ptr %9, align 8, !tbaa !28
  %46 = getelementptr inbounds nuw %"class.g2o::OptimizationAlgorithmWithHessian", ptr %13, i32 0, i32 1
  %47 = load ptr, ptr %46, align 8, !tbaa !50
  %48 = load ptr, ptr %47, align 8, !tbaa !18
  %49 = getelementptr inbounds ptr, ptr %48, i64 5
  %50 = load ptr, ptr %49, align 8
  %51 = call noundef zeroext i1 %50(ptr noundef nonnull align 8 dereferenceable(64) %47)
  %52 = load ptr, ptr %10, align 8, !tbaa !44
  %53 = icmp ne ptr %52, null
  br i1 %53, label %54, label %61

54:                                               ; preds = %44
  %55 = call noundef double @_ZN3g2o18get_monotonic_timeEv()
  %56 = load double, ptr %9, align 8, !tbaa !28
  %57 = fsub double %55, %56
  %58 = load ptr, ptr %10, align 8, !tbaa !44
  %59 = getelementptr inbounds nuw %"struct.g2o::G2OBatchStatistics", ptr %58, i32 0, i32 6
  store double %57, ptr %59, align 8, !tbaa !53
  %60 = call noundef double @_ZN3g2o18get_monotonic_timeEv()
  store double %60, ptr %9, align 8, !tbaa !28
  br label %61

61:                                               ; preds = %54, %44
  %62 = getelementptr inbounds nuw %"class.g2o::OptimizationAlgorithmWithHessian", ptr %13, i32 0, i32 1
  %63 = load ptr, ptr %62, align 8, !tbaa !50
  %64 = load ptr, ptr %63, align 8, !tbaa !18
  %65 = getelementptr inbounds ptr, ptr %64, i64 6
  %66 = load ptr, ptr %65, align 8
  %67 = call noundef zeroext i1 %66(ptr noundef nonnull align 8 dereferenceable(64) %63)
  %68 = zext i1 %67 to i8
  store i8 %68, ptr %8, align 1, !tbaa !26
  %69 = load ptr, ptr %10, align 8, !tbaa !44
  %70 = icmp ne ptr %69, null
  br i1 %70, label %71, label %78

71:                                               ; preds = %61
  %72 = call noundef double @_ZN3g2o18get_monotonic_timeEv()
  %73 = load double, ptr %9, align 8, !tbaa !28
  %74 = fsub double %72, %73
  %75 = load ptr, ptr %10, align 8, !tbaa !44
  %76 = getelementptr inbounds nuw %"struct.g2o::G2OBatchStatistics", ptr %75, i32 0, i32 11
  store double %74, ptr %76, align 8, !tbaa !54
  %77 = call noundef double @_ZN3g2o18get_monotonic_timeEv()
  store double %77, ptr %9, align 8, !tbaa !28
  br label %78

78:                                               ; preds = %71, %61
  %79 = getelementptr inbounds nuw %"class.g2o::OptimizationAlgorithm", ptr %13, i32 0, i32 1
  %80 = load ptr, ptr %79, align 8, !tbaa !30
  %81 = getelementptr inbounds nuw %"class.g2o::OptimizationAlgorithmWithHessian", ptr %13, i32 0, i32 1
  %82 = load ptr, ptr %81, align 8, !tbaa !50
  %83 = call noundef ptr @_ZN3g2o6Solver1xEv(ptr noundef nonnull align 8 dereferenceable(64) %82)
  call void @_ZN3g2o15SparseOptimizer6updateEPKd(ptr noundef nonnull align 8 dereferenceable(409) %80, ptr noundef %83)
  %84 = load ptr, ptr %10, align 8, !tbaa !44
  %85 = icmp ne ptr %84, null
  br i1 %85, label %86, label %92

86:                                               ; preds = %78
  %87 = call noundef double @_ZN3g2o18get_monotonic_timeEv()
  %88 = load double, ptr %9, align 8, !tbaa !28
  %89 = fsub double %87, %88
  %90 = load ptr, ptr %10, align 8, !tbaa !44
  %91 = getelementptr inbounds nuw %"struct.g2o::G2OBatchStatistics", ptr %90, i32 0, i32 14
  store double %89, ptr %91, align 8, !tbaa !55
  br label %92

92:                                               ; preds = %86, %78
  %93 = load i8, ptr %8, align 1, !tbaa !26, !range !48, !noundef !49
  %94 = trunc i8 %93 to i1
  br i1 %94, label %95, label %96

95:                                               ; preds = %92
  store i32 1, ptr %4, align 4
  store i32 1, ptr %11, align 4
  br label %97

96:                                               ; preds = %92
  store i32 -1, ptr %4, align 4
  store i32 1, ptr %11, align 4
  br label %97

97:                                               ; preds = %96, %95, %42
  call void @llvm.lifetime.end.p0(i64 8, ptr %10) #6
  call void @llvm.lifetime.end.p0(i64 8, ptr %9) #6
  call void @llvm.lifetime.end.p0(i64 1, ptr %8) #6
  %98 = load i32, ptr %4, align 4
  ret i32 %98
}