; Function Attrs: mustprogress uwtable
define noundef range(i32 -1, 2) i32 @_ZN3g2o32OptimizationAlgorithmGaussNewton5solveEib(ptr noundef nonnull readonly align 8 captures(none) dereferenceable(88) %0, i32 noundef %1, i1 noundef zeroext %2) unnamed_addr #4 align 2 {
  %4 = tail call noundef double @_ZN3g2o18get_monotonic_timeEv()
  %5 = getelementptr inbounds nuw i8, ptr %0, i64 8
  %6 = load ptr, ptr %5, align 8, !tbaa !10
  tail call void @_ZN3g2o15SparseOptimizer19computeActiveErrorsEv(ptr noundef nonnull align 8 dereferenceable(409) %6)
  %7 = load ptr, ptr @_ZN3g2o18G2OBatchStatistics12_globalStatsE, align 8, !tbaa !24
  %.not = icmp eq ptr %7, null
  br i1 %.not, label %12, label %8

8:                                                ; preds = %3
  %9 = tail call noundef double @_ZN3g2o18get_monotonic_timeEv()
  %10 = fsub double %9, %4
  %11 = getelementptr inbounds nuw i8, ptr %7, i64 24
  store double %10, ptr %11, align 8, !tbaa !26
  br label %12

12:                                               ; preds = %8, %3
  %13 = icmp ne i32 %1, 0
  %brmerge = or i1 %13, %2
  br i1 %brmerge, label %21, label %14

14:                                               ; preds = %12
  %15 = getelementptr inbounds nuw i8, ptr %0, i64 64
  %16 = load ptr, ptr %15, align 8, !tbaa !30
  %17 = load ptr, ptr %16, align 8, !tbaa !8
  %18 = getelementptr inbounds nuw i8, ptr %17, i64 24
  %19 = load ptr, ptr %18, align 8
  %20 = tail call noundef zeroext i1 %19(ptr noundef nonnull align 8 dereferenceable(64) %16, i1 noundef zeroext false)
  br i1 %20, label %21, label %55

21:                                               ; preds = %12, %14
  %22 = tail call noundef double @_ZN3g2o18get_monotonic_timeEv()
  %23 = getelementptr inbounds nuw i8, ptr %0, i64 64
  %24 = load ptr, ptr %23, align 8, !tbaa !30
  %25 = load ptr, ptr %24, align 8, !tbaa !8
  %26 = getelementptr inbounds nuw i8, ptr %25, i64 40
  %27 = load ptr, ptr %26, align 8
  %28 = tail call noundef zeroext i1 %27(ptr noundef nonnull align 8 dereferenceable(64) %24)
  br i1 %.not, label %34, label %29

29:                                               ; preds = %21
  %30 = tail call noundef double @_ZN3g2o18get_monotonic_timeEv()
  %31 = fsub double %30, %22
  %32 = getelementptr inbounds nuw i8, ptr %7, i64 40
  store double %31, ptr %32, align 8, !tbaa !33
  %33 = tail call noundef double @_ZN3g2o18get_monotonic_timeEv()
  br label %34

34:                                               ; preds = %29, %21
  %.017 = phi double [ %33, %29 ], [ %22, %21 ]
  %35 = load ptr, ptr %23, align 8, !tbaa !30
  %36 = load ptr, ptr %35, align 8, !tbaa !8
  %37 = getelementptr inbounds nuw i8, ptr %36, i64 48
  %38 = load ptr, ptr %37, align 8
  %39 = tail call noundef zeroext i1 %38(ptr noundef nonnull align 8 dereferenceable(64) %35)
  br i1 %.not, label %45, label %40

40:                                               ; preds = %34
  %41 = tail call noundef double @_ZN3g2o18get_monotonic_timeEv()
  %42 = fsub double %41, %.017
  %43 = getelementptr inbounds nuw i8, ptr %7, i64 80
  store double %42, ptr %43, align 8, !tbaa !34
  %44 = tail call noundef double @_ZN3g2o18get_monotonic_timeEv()
  br label %45

45:                                               ; preds = %40, %34
  %.1 = phi double [ %44, %40 ], [ %.017, %34 ]
  %46 = load ptr, ptr %5, align 8, !tbaa !10
  %47 = load ptr, ptr %23, align 8, !tbaa !30
  %48 = getelementptr inbounds nuw i8, ptr %47, i64 16
  %49 = load ptr, ptr %48, align 8, !tbaa !35
  tail call void @_ZN3g2o15SparseOptimizer6updateEPKd(ptr noundef nonnull align 8 dereferenceable(409) %46, ptr noundef %49)
  br i1 %.not, label %54, label %50

50:                                               ; preds = %45
  %51 = tail call noundef double @_ZN3g2o18get_monotonic_timeEv()
  %52 = fsub double %51, %.1
  %53 = getelementptr inbounds nuw i8, ptr %7, i64 104
  store double %52, ptr %53, align 8, !tbaa !39
  br label %54

54:                                               ; preds = %50, %45
  %. = select i1 %39, i32 1, i32 -1
  br label %55

55:                                               ; preds = %54, %14
  %.0 = phi i32 [ -1, %14 ], [ %., %54 ]
  ret i32 %.0
}